Certificate:
    Data:
        Version: 3 (0x2)
        Serial Number: 4 (0x4)
    Signature Algorithm: ecdsa-with-SHA256
        Issuer: O=Acme Co, CN=Root CA
        Validity
            Not Before: Mar  6 17:46:34 2019 GMT
            Not After : Mar  5 17:46:34 2020 GMT
        Subject: O=Acme Co, CN=client_auth_test_cert
        Subject Public Key Info:
            Public Key Algorithm: id-ecPublicKey
                Public-Key: (256 bit)
                pub: 
                    04:f3:e0:5e:5e:9a:65:49:7c:c0:78:29:08:1e:7a:
                    fc:a7:b0:e4:b5:4e:58:a0:cc:6d:37:11:e8:7e:bd:
                    12:0c:0f:72:16:9c:01:dd:06:dc:63:fa:92:45:e4:
                    95:3f:41:e2:64:84:ee:6e:c9:c7:d6:e7:a4:2a:55:
                    d1:1d:d4:3f:68
                ASN1 OID: prime256v1
                NIST CURVE: P-256
        X509v3 extensions:
            X509v3 Key Usage: critical
                Digital Signature
            X509v3 Extended Key Usage: 
                TLS Web Client Authentication
            X509v3 Basic Constraints: critical
                CA:FALSE
    Signature Algorithm: ecdsa-with-SHA256
         30:45:02:21:00:96:3e:f2:9b:86:e6:22:9d:1b:a3:62:11:3e:
         cc:47:df:4e:2b:5f:65:d8:6f:86:dd:e9:7b:90:33:1c:de:cb:
         80:02:20:43:f8:31:b2:46:6d:f6:d5:af:45:9a:6c:f1:aa:39:
         bf:af:89:58:f4:37:d6:66:2a:e7:7d:bc:e4:69:a3:50:08
-----BEGIN CERTIFICATE-----
MIIBejCCASCgAwIBAgIBBDAKBggqhkjOPQQDAjAkMRAwDgYDVQQKEwdBY21lIENv
MRAwDgYDVQQDEwdSb290IENBMB4XDTE5MDMwNjE3NDYzNFoXDTIwMDMwNTE3NDYz
NFowMjEQMA4GA1UEChMHQWNtZSBDbzEeMBwGA1UEAwwVY2xpZW50X2F1dGhfdGVz
dF9jZXJ0MFkwEwYHKoZIzj0CAQYIKoZIzj0DAQcDQgAE8+BeXpplSXzAeCkIHnr8
p7DktU5YoMxtNxHofr0SDA9yFpwB3QbcY/qSReSVP0HiZITubsnH1uekKlXRHdQ/
aKM1MDMwDgYDVR0PAQH/BAQDAgeAMBMGA1UdJQQMMAoGCCsGAQUFBwMCMAwGA1Ud
EwEB/wQCMAAwCgYIKoZIzj0EAwIDSAAwRQIhAJY+8puG5iKdG6NiET7MR99OK19l
2G+G3el7kDMc3suAAiBD+DGyRm321a9Fmmzxqjm/r4lY9DfWZirnfbzkaaNQCA==
-----END CERTIFICATE-----
