Certificate:
    Data:
        Version: 3 (0x2)
        Serial Number:
            2c:21:01:2a:f4:a6:b7:4c:5f:5d:5d:1b:e4:e3:dd:fc
    Signature Algorithm: ecdsa-with-SHA256
        Issuer: O=Acme Co, CN=Root CA
        Validity
            Not Before: Mar  6 17:46:34 2019 GMT
            Not After : Mar  5 17:46:34 2020 GMT
        Subject: O=Acme Co, CN=test_cert_1
        Subject Public Key Info:
            Public Key Algorithm: id-ecPublicKey
                Public-Key: (256 bit)
                pub: 
                    04:8d:88:4f:ff:76:d2:a0:3c:fc:a3:da:59:de:db:
                    bf:bc:41:47:b3:7a:e1:a7:c3:9b:46:ca:4f:9c:da:
                    5f:9d:6c:b3:6e:be:4a:73:a0:9f:46:41:db:51:58:
                    0a:47:ce:83:16:43:09:ff:9f:5c:99:66:08:0a:fa:
                    e5:24:3b:38:74
                ASN1 OID: prime256v1
                NIST CURVE: P-256
        X509v3 extensions:
            X509v3 Key Usage: critical
                Digital Signature, Key Encipherment
            X509v3 Extended Key Usage: 
                TLS Web Server Authentication
            X509v3 Basic Constraints: critical
                CA:FALSE
            X509v3 Subject Alternative Name: 
                DNS:localhost, IP Address:127.0.0.1
    Signature Algorithm: ecdsa-with-SHA256
         30:46:02:21:00:b6:3e:9d:90:af:4d:55:dc:ad:6b:87:2f:83:
         af:55:09:36:63:de:b5:12:c2:3e:b7:6e:67:5d:01:a3:90:ed:
         e7:02:21:00:92:a3:c7:1e:4c:61:85:7b:e2:9b:37:83:d1:e3:
         0a:b1:a6:c8:45:c7:39:01:28:d0:bf:98:04:fd:7b:35:ea:8e
-----BEGIN CERTIFICATE-----
MIIBnDCCAUGgAwIBAgIQLCEBKvSmt0xfXV0b5OPd/DAKBggqhkjOPQQDAjAkMRAw
DgYDVQQKEwdBY21lIENvMRAwDgYDVQQDEwdSb290IENBMB4XDTE5MDMwNjE3NDYz
NFoXDTIwMDMwNTE3NDYzNFowKDEQMA4GA1UEChMHQWNtZSBDbzEUMBIGA1UEAwwL
dGVzdF9jZXJ0XzEwWTATBgcqhkjOPQIBBggqhkjOPQMBBwNCAASNiE//dtKgPPyj
2lne27+8QUezeuGnw5tGyk+c2l+dbLNuvkpzoJ9GQdtRWApHzoMWQwn/n1yZZggK
+uUkOzh0o1EwTzAOBgNVHQ8BAf8EBAMCBaAwEwYDVR0lBAwwCgYIKwYBBQUHAwEw
DAYDVR0TAQH/BAIwADAaBgNVHREEEzARgglsb2NhbGhvc3SHBH8AAAEwCgYIKoZI
zj0EAwIDSQAwRgIhALY+nZCvTVXcrWuHL4OvVQk2Y961EsI+t25nXQGjkO3nAiEA
kqPHHkxhhXvimzeD0eMKsabIRcc5ASjQv5gE/Xs16o4=
-----END CERTIFICATE-----
