Certificate:
    Data:
        Version: 3 (0x2)
        Serial Number:
            b0:64:27:8e:e8:10:7b:b9:ba:a9:e8:cf:ff:b2:16:01
    Signature Algorithm: ecdsa-with-SHA256
        Issuer: O=Acme Co, CN=Root CA
        Validity
            Not Before: Mar  6 17:46:34 2019 GMT
            Not After : Mar  5 17:46:34 2020 GMT
        Subject: O=Acme Co, CN=Root CA
        Subject Public Key Info:
            Public Key Algorithm: id-ecPublicKey
                Public-Key: (256 bit)
                pub: 
                    04:dc:12:46:28:c7:6c:8b:20:58:c1:e8:8c:df:4c:
                    b7:7a:01:ef:5c:93:69:53:fa:0d:61:b1:9b:aa:d4:
                    e2:e0:b5:50:7c:be:3b:fb:a2:bf:24:04:56:2e:39:
                    54:8c:6e:80:07:73:8c:c4:34:d4:36:63:3a:c4:3b:
                    8f:61:55:79:bb
                ASN1 OID: prime256v1
                NIST CURVE: P-256
        X509v3 extensions:
            X509v3 Key Usage: critical
                Certificate Sign
            X509v3 Extended Key Usage: 
                TLS Web Server Authentication
            X509v3 Basic Constraints: critical
                CA:TRUE
    Signature Algorithm: ecdsa-with-SHA256
         30:45:02:21:00:a7:61:d1:23:a7:31:87:5c:91:52:75:54:2a:
         60:0c:c5:8b:84:46:8c:06:aa:e9:dc:50:1b:ad:de:66:c1:03:
         22:02:20:7c:83:93:b0:e1:e8:2d:fb:9f:6e:ce:99:56:94:76:
         6e:91:a9:86:09:bf:d6:df:6c:10:ba:70:58:b9:98:0c:cb
-----BEGIN CERTIFICATE-----
MIIBfzCCASWgAwIBAgIRALBkJ47oEHu5uqnoz/+yFgEwCgYIKoZIzj0EAwIwJDEQ
MA4GA1UEChMHQWNtZSBDbzEQMA4GA1UEAxMHUm9vdCBDQTAeFw0xOTAzMDYxNzQ2
MzRaFw0yMDAzMDUxNzQ2MzRaMCQxEDAOBgNVBAoTB0FjbWUgQ28xEDAOBgNVBAMT
B1Jvb3QgQ0EwWTATBgcqhkjOPQIBBggqhkjOPQMBBwNCAATcEkYox2yLIFjB6Izf
TLd6Ae9ck2lT+g1hsZuq1OLgtVB8vjv7or8kBFYuOVSMboAHc4zENNQ2YzrEO49h
VXm7ozgwNjAOBgNVHQ8BAf8EBAMCAgQwEwYDVR0lBAwwCgYIKwYBBQUHAwEwDwYD
VR0TAQH/BAUwAwEB/zAKBggqhkjOPQQDAgNIADBFAiEAp2HRI6cxh1yRUnVUKmAM
xYuERowGquncUBut3mbBAyICIHyDk7Dh6C37n27OmVaUdm6RqYYJv9bfbBC6cFi5
mAzL
-----END CERTIFICATE-----
